target datalayout = "e-m:e-p270:32:32-p271:32:32-p272:64:64-i64:64-i128:128-f80:128-n8:16:32:64-S128"
target triple = "x86_64-pc-linux-gnu"

%"class.casadi::Function" = type { %"class.casadi::SharedObject" }
%"class.casadi::SharedObject" = type { ptr }
%"class.casadi::MX" = type { %"class.casadi::SharedObject" }

; Function Attrs: mustprogress uwtable
define void @_ZN6casadi16DeserializerBase15blind_unpack_mxEv(ptr dead_on_unwind noalias writable sret(%"class.casadi::MX") align 8 %0, ptr noundef nonnull align 8 dereferenceable(16) %1) #4 align 2 personality ptr @__gxx_personality_v0 {
  %3 = alloca ptr, align 8
  %4 = alloca ptr, align 8
  %5 = alloca %"class.casadi::Function", align 8
  %6 = alloca ptr, align 8
  %7 = alloca i32, align 4
  %8 = alloca i1, align 1
  store ptr %0, ptr %3, align 8
  store ptr %1, ptr %4, align 8
  %9 = load ptr, ptr %4, align 8
  call void @_ZN6casadi8FunctionC1Ev(ptr noundef nonnull align 8 dereferenceable(8) %5)
  %10 = invoke noundef nonnull align 8 dereferenceable(41) ptr @_ZN6casadi16DeserializerBase12deserializerEv(ptr noundef nonnull align 8 dereferenceable(16) %9)
          to label %11 unwind label %18

11:                                               ; preds = %2
  invoke void @_ZN6casadi19DeserializingStream6unpackERNS_8FunctionE(ptr noundef nonnull align 8 dereferenceable(41) %10, ptr noundef nonnull align 8 dereferenceable(8) %5)
          to label %12 unwind label %18

12:                                               ; preds = %11
  store i1 false, ptr %8, align 1
  invoke void @_ZN6casadi2MXC1Ev(ptr noundef nonnull align 8 dereferenceable(8) %0)
          to label %13 unwind label %18

13:                                               ; preds = %12
  %14 = invoke noundef nonnull align 8 dereferenceable(41) ptr @_ZN6casadi16DeserializerBase12deserializerEv(ptr noundef nonnull align 8 dereferenceable(16) %9)
          to label %15 unwind label %22

15:                                               ; preds = %13
  invoke void @_ZN6casadi19DeserializingStream6unpackERNS_2MXE(ptr noundef nonnull align 8 dereferenceable(41) %14, ptr noundef nonnull align 8 dereferenceable(8) %0)
          to label %16 unwind label %22

16:                                               ; preds = %15
  store i1 true, ptr %8, align 1
  %17 = load i1, ptr %8, align 1
  br i1 %17, label %27, label %26

18:                                               ; preds = %12, %11, %2
  %19 = landingpad { ptr, i32 }
          cleanup
  %20 = extractvalue { ptr, i32 } %19, 0
  store ptr %20, ptr %6, align 8
  %21 = extractvalue { ptr, i32 } %19, 1
  store i32 %21, ptr %7, align 4
  br label %28

22:                                               ; preds = %15, %13
  %23 = landingpad { ptr, i32 }
          cleanup
  %24 = extractvalue { ptr, i32 } %23, 0
  store ptr %24, ptr %6, align 8
  %25 = extractvalue { ptr, i32 } %23, 1
  store i32 %25, ptr %7, align 4
  call void @_ZN6casadi2MXD1Ev(ptr noundef nonnull align 8 dereferenceable(8) %0) #3
  br label %28

26:                                               ; preds = %16
  call void @_ZN6casadi2MXD1Ev(ptr noundef nonnull align 8 dereferenceable(8) %0) #3
  br label %27

27:                                               ; preds = %26, %16
  call void @_ZN6casadi8FunctionD1Ev(ptr noundef nonnull align 8 dereferenceable(8) %5) #3
  ret void

28:                                               ; preds = %22, %18
  call void @_ZN6casadi8FunctionD1Ev(ptr noundef nonnull align 8 dereferenceable(8) %5) #3
  br label %29

29:                                               ; preds = %28
  %30 = load ptr, ptr %6, align 8
  %31 = load i32, ptr %7, align 4
  %32 = insertvalue { ptr, i32 } poison, ptr %30, 0
  %33 = insertvalue { ptr, i32 } %32, i32 %31, 1
  resume { ptr, i32 } %33
}