; Function Attrs: mustprogress uwtable
define void @_ZN6casadi16DeserializerBase15blind_unpack_mxEv(ptr dead_on_unwind noalias writable sret(%"class.casadi::MX") align 8 %0, ptr nocapture noundef nonnull readonly align 8 dereferenceable(16) %1) local_unnamed_addr #3 align 2 personality ptr @__gxx_personality_v0 {
  %3 = alloca %"class.casadi::Function", align 8
  call void @_ZN6casadi8FunctionC1Ev(ptr noundef nonnull align 8 dereferenceable(8) %3)
  %4 = invoke noundef nonnull align 8 dereferenceable(41) ptr @_ZN6casadi16DeserializerBase12deserializerEv(ptr noundef nonnull align 8 dereferenceable(16) %1)
          to label %5 unwind label %10

5:                                                ; preds = %2
  invoke void @_ZN6casadi19DeserializingStream6unpackERNS_8FunctionE(ptr noundef nonnull align 8 dereferenceable(41) %4, ptr noundef nonnull align 8 dereferenceable(8) %3)
          to label %6 unwind label %10

6:                                                ; preds = %5
  invoke void @_ZN6casadi2MXC1Ev(ptr noundef nonnull align 8 dereferenceable(8) %0)
          to label %7 unwind label %10

7:                                                ; preds = %6
  %8 = invoke noundef nonnull align 8 dereferenceable(41) ptr @_ZN6casadi16DeserializerBase12deserializerEv(ptr noundef nonnull align 8 dereferenceable(16) %1)
          to label %9 unwind label %12

9:                                                ; preds = %7
  invoke void @_ZN6casadi19DeserializingStream6unpackERNS_2MXE(ptr noundef nonnull align 8 dereferenceable(41) %8, ptr noundef nonnull align 8 dereferenceable(8) %0)
          to label %14 unwind label %12

10:                                               ; preds = %6, %5, %2
  %11 = landingpad { ptr, i32 }
          cleanup
  br label %15

12:                                               ; preds = %9, %7
  %13 = landingpad { ptr, i32 }
          cleanup
  call void @_ZN6casadi2MXD1Ev(ptr noundef nonnull align 8 dereferenceable(8) %0) #21
  br label %15

14:                                               ; preds = %9
  call void @_ZN6casadi8FunctionD1Ev(ptr noundef nonnull align 8 dereferenceable(8) %3) #21
  ret void

15:                                               ; preds = %12, %10
  %.pn = phi { ptr, i32 } [ %13, %12 ], [ %11, %10 ]
  call void @_ZN6casadi8FunctionD1Ev(ptr noundef nonnull align 8 dereferenceable(8) %3) #21
  resume { ptr, i32 } %.pn
}